ccopy_reg
_reconstructor
p0
(cgoogle.oauth2.credentials
Credentials
p1
c__builtin__
object
p2
Ntp3
Rp4
(dp5
S'_quota_project_id'
p6
NsS'_token_uri'
p7
Vhttps://oauth2.googleapis.com/token
p8
sS'_client_secret'
p9
V0vFREgPtnrtzx89PrbJ-QgYH
p10
sS'_id_token'
p11
NsS'token'
p12
Vya29.a0AfH6SMBDdGRbnXG6GzPDv_Yl6C0qQ4guDMobLzN8mlWfiaAmOaUW47KCkOhpIHJexQFt68ETLkqtn6LViAFzpk8ODllq7JpZDO1qfJlld0ym46zlA06haVZnHHOpTl8L5M9-5hHRQKn6wuZjFdPArkdiTRH1P9XqiYU
p13
sS'_refresh_token'
p14
V1//0gsoHJzfPGm1HCgYIARAAGBASNwF-L9IrxLfNxW6K-DHTPGAGgTWgDpaswIq_2X_Hp6Vx8P1JSwjK3Vh4A1oe179nJbRPI2Bs-io
p15
sS'_scopes'
p16
(lp17
S'https://www.googleapis.com/auth/gmail.readonly'
p18
asS'_client_id'
p19
V991603513691-ub23kp0itkk8r2hagc2jhbddr1nlgdn2.apps.googleusercontent.com
p20
sS'expiry'
p21
cdatetime
datetime
p22
(S'\x07\xe4\x05\x0c\x03\x1a8\x0f*\xd0'
p23
tp24
Rp25
sb.